target datalayout = "e-m:e-p270:32:32-p271:32:32-p272:64:64-i64:64-i128:128-f80:128-n8:16:32:64-S128"
target triple = "x86_64-pc-linux-gnu"

%struct.CPpmd7z_RangeDec = type { %struct.IPpmd7_RangeDec, i32, i32, ptr }
%struct.IPpmd7_RangeDec = type { ptr, ptr, ptr }
%struct.IByteIn = type { ptr }

; Function Attrs: nounwind uwtable
define i32 @Ppmd7z_RangeDec_Init(ptr noundef %0) #0 {
  %2 = alloca i32, align 4
  %3 = alloca ptr, align 8
  %4 = alloca i32, align 4
  store ptr %0, ptr %3, align 8
  %5 = load ptr, ptr %3, align 8
  %6 = getelementptr inbounds %struct.CPpmd7z_RangeDec, ptr %5, i32 0, i32 2
  store i32 0, ptr %6, align 4
  %7 = load ptr, ptr %3, align 8
  %8 = getelementptr inbounds %struct.CPpmd7z_RangeDec, ptr %7, i32 0, i32 1
  store i32 -1, ptr %8, align 8
  %9 = load ptr, ptr %3, align 8
  %10 = getelementptr inbounds %struct.CPpmd7z_RangeDec, ptr %9, i32 0, i32 3
  %11 = load ptr, ptr %10, align 8
  %12 = getelementptr inbounds %struct.IByteIn, ptr %11, i32 0, i32 0
  %13 = load ptr, ptr %12, align 8
  %14 = load ptr, ptr %3, align 8
  %15 = getelementptr inbounds %struct.CPpmd7z_RangeDec, ptr %14, i32 0, i32 3
  %16 = load ptr, ptr %15, align 8
  %17 = call zeroext i8 %13(ptr noundef %16)
  %18 = zext i8 %17 to i32
  %19 = icmp ne i32 %18, 0
  br i1 %19, label %20, label %21

20:                                               ; preds = %1
  store i32 0, ptr %2, align 4
  br label %52

21:                                               ; preds = %1
  store i32 0, ptr %4, align 4
  br label %22

22:                                               ; preds = %43, %21
  %23 = load i32, ptr %4, align 4
  %24 = icmp ult i32 %23, 4
  br i1 %24, label %25, label %46

25:                                               ; preds = %22
  %26 = load ptr, ptr %3, align 8
  %27 = getelementptr inbounds %struct.CPpmd7z_RangeDec, ptr %26, i32 0, i32 2
  %28 = load i32, ptr %27, align 4
  %29 = shl i32 %28, 8
  %30 = load ptr, ptr %3, align 8
  %31 = getelementptr inbounds %struct.CPpmd7z_RangeDec, ptr %30, i32 0, i32 3
  %32 = load ptr, ptr %31, align 8
  %33 = getelementptr inbounds %struct.IByteIn, ptr %32, i32 0, i32 0
  %34 = load ptr, ptr %33, align 8
  %35 = load ptr, ptr %3, align 8
  %36 = getelementptr inbounds %struct.CPpmd7z_RangeDec, ptr %35, i32 0, i32 3
  %37 = load ptr, ptr %36, align 8
  %38 = call zeroext i8 %34(ptr noundef %37)
  %39 = zext i8 %38 to i32
  %40 = or i32 %29, %39
  %41 = load ptr, ptr %3, align 8
  %42 = getelementptr inbounds %struct.CPpmd7z_RangeDec, ptr %41, i32 0, i32 2
  store i32 %40, ptr %42, align 4
  br label %43

43:                                               ; preds = %25
  %44 = load i32, ptr %4, align 4
  %45 = add i32 %44, 1
  store i32 %45, ptr %4, align 4
  br label %22

46:                                               ; preds = %22
  %47 = load ptr, ptr %3, align 8
  %48 = getelementptr inbounds %struct.CPpmd7z_RangeDec, ptr %47, i32 0, i32 2
  %49 = load i32, ptr %48, align 4
  %50 = icmp ult i32 %49, -1
  %51 = zext i1 %50 to i32
  store i32 %51, ptr %2, align 4
  br label %52

52:                                               ; preds = %46, %20
  %53 = load i32, ptr %2, align 4
  ret i32 %53
}