; Function Attrs: nounwind uwtable
define i32 @Ppmd7z_RangeDec_Init(ptr nocapture noundef %0) local_unnamed_addr #0 {
  %2 = getelementptr inbounds i8, ptr %0, i64 28
  store i32 0, ptr %2, align 4
  %3 = getelementptr inbounds i8, ptr %0, i64 24
  store i32 -1, ptr %3, align 8
  %4 = getelementptr inbounds i8, ptr %0, i64 32
  %5 = load ptr, ptr %4, align 8
  %6 = load ptr, ptr %5, align 8
  %7 = tail call zeroext i8 %6(ptr noundef nonnull %5) #5
  %.not = icmp eq i8 %7, 0
  br i1 %.not, label %.preheader.preheader, label %19

.preheader.preheader:                             ; preds = %1
  %.pre = load i32, ptr %2, align 4
  br label %.preheader

.preheader:                                       ; preds = %.preheader.preheader, %.preheader
  %8 = phi i32 [ %14, %.preheader ], [ %.pre, %.preheader.preheader ]
  %.012 = phi i32 [ %15, %.preheader ], [ 0, %.preheader.preheader ]
  %9 = shl i32 %8, 8
  %10 = load ptr, ptr %4, align 8
  %11 = load ptr, ptr %10, align 8
  %12 = tail call zeroext i8 %11(ptr noundef nonnull %10) #5
  %13 = zext i8 %12 to i32
  %14 = or disjoint i32 %9, %13
  store i32 %14, ptr %2, align 4
  %15 = add nuw nsw i32 %.012, 1
  %exitcond.not = icmp eq i32 %15, 4
  br i1 %exitcond.not, label %16, label %.preheader

16:                                               ; preds = %.preheader
  %17 = icmp ne i32 %14, -1
  %18 = zext i1 %17 to i32
  br label %19

19:                                               ; preds = %1, %16
  %.011 = phi i32 [ %18, %16 ], [ 0, %1 ]
  ret i32 %.011
}